target datalayout = "e-m:e-p270:32:32-p271:32:32-p272:64:64-i64:64-i128:128-f80:128-n8:16:32:64-S128"
target triple = "x86_64-pc-linux-gnu"

@.str.14 = private unnamed_addr constant [6 x i8] c"  ?%%\00", align 1
@.str.15 = private unnamed_addr constant [6 x i8] c"  0%%\00", align 1
@.str.16 = private unnamed_addr constant [6 x i8] c"100%%\00", align 1
@.str.17 = private unnamed_addr constant [6 x i8] c" <1%%\00", align 1
@.str.18 = private unnamed_addr constant [6 x i8] c">99%%\00", align 1
@.str.19 = private unnamed_addr constant [8 x i8] c"%3.0f%%\00", align 1

; Function Attrs: mustprogress nounwind uwtable
define hidden void @_ZN9metaspace16print_percentageEP12outputStreammm(ptr noundef %0, i64 noundef %1, i64 noundef %2) #1 {
  %4 = alloca ptr, align 8
  %5 = alloca i64, align 8
  %6 = alloca i64, align 8
  %7 = alloca float, align 4
  store ptr %0, ptr %4, align 8
  store i64 %1, ptr %5, align 8
  store i64 %2, ptr %6, align 8
  %8 = load i64, ptr %5, align 8
  %9 = icmp eq i64 %8, 0
  br i1 %9, label %10, label %12

10:                                               ; preds = %3
  %11 = load ptr, ptr %4, align 8
  call void (ptr, ptr, ...) @_ZN12outputStream5printEPKcz(ptr noundef nonnull align 8 dereferenceable(56) %11, ptr noundef @.str.14)
  br label %47

12:                                               ; preds = %3
  %13 = load i64, ptr %6, align 8
  %14 = icmp eq i64 %13, 0
  br i1 %14, label %15, label %17

15:                                               ; preds = %12
  %16 = load ptr, ptr %4, align 8
  call void (ptr, ptr, ...) @_ZN12outputStream5printEPKcz(ptr noundef nonnull align 8 dereferenceable(56) %16, ptr noundef @.str.15)
  br label %46

17:                                               ; preds = %12
  %18 = load i64, ptr %6, align 8
  %19 = load i64, ptr %5, align 8
  %20 = icmp eq i64 %18, %19
  br i1 %20, label %21, label %23

21:                                               ; preds = %17
  %22 = load ptr, ptr %4, align 8
  call void (ptr, ptr, ...) @_ZN12outputStream5printEPKcz(ptr noundef nonnull align 8 dereferenceable(56) %22, ptr noundef @.str.16)
  br label %45

23:                                               ; preds = %17
  %24 = load i64, ptr %6, align 8
  %25 = uitofp i64 %24 to float
  %26 = load i64, ptr %5, align 8
  %27 = uitofp i64 %26 to float
  %28 = fdiv float %25, %27
  %29 = fmul float %28, 1.000000e+02
  store float %29, ptr %7, align 4
  %30 = load float, ptr %7, align 4
  %31 = fcmp olt float %30, 1.000000e+00
  br i1 %31, label %32, label %34

32:                                               ; preds = %23
  %33 = load ptr, ptr %4, align 8
  call void (ptr, ptr, ...) @_ZN12outputStream5printEPKcz(ptr noundef nonnull align 8 dereferenceable(56) %33, ptr noundef @.str.17)
  br label %44

34:                                               ; preds = %23
  %35 = load float, ptr %7, align 4
  %36 = fcmp ogt float %35, 9.900000e+01
  br i1 %36, label %37, label %39

37:                                               ; preds = %34
  %38 = load ptr, ptr %4, align 8
  call void (ptr, ptr, ...) @_ZN12outputStream5printEPKcz(ptr noundef nonnull align 8 dereferenceable(56) %38, ptr noundef @.str.18)
  br label %43

39:                                               ; preds = %34
  %40 = load ptr, ptr %4, align 8
  %41 = load float, ptr %7, align 4
  %42 = fpext float %41 to double
  call void (ptr, ptr, ...) @_ZN12outputStream5printEPKcz(ptr noundef nonnull align 8 dereferenceable(56) %40, ptr noundef @.str.19, double noundef %42)
  br label %43

43:                                               ; preds = %39, %37
  br label %44

44:                                               ; preds = %43, %32
  br label %45

45:                                               ; preds = %44, %21
  br label %46

46:                                               ; preds = %45, %15
  br label %47

47:                                               ; preds = %46, %10
  ret void
}