; Function Attrs: mustprogress nounwind uwtable
define hidden void @_ZN9metaspace16print_percentageEP12outputStreammm(ptr noundef %0, i64 noundef %1, i64 noundef %2) local_unnamed_addr #0 {
  %4 = icmp eq i64 %1, 0
  br i1 %4, label %5, label %6

5:                                                ; preds = %3
  tail call void (ptr, ptr, ...) @_ZN12outputStream5printEPKcz(ptr noundef nonnull align 8 dereferenceable(56) %0, ptr noundef nonnull @.str.14) #4
  br label %24

6:                                                ; preds = %3
  %7 = icmp eq i64 %2, 0
  br i1 %7, label %8, label %9

8:                                                ; preds = %6
  tail call void (ptr, ptr, ...) @_ZN12outputStream5printEPKcz(ptr noundef nonnull align 8 dereferenceable(56) %0, ptr noundef nonnull @.str.15) #4
  br label %24

9:                                                ; preds = %6
  %10 = icmp eq i64 %2, %1
  br i1 %10, label %11, label %12

11:                                               ; preds = %9
  tail call void (ptr, ptr, ...) @_ZN12outputStream5printEPKcz(ptr noundef nonnull align 8 dereferenceable(56) %0, ptr noundef nonnull @.str.16) #4
  br label %24

12:                                               ; preds = %9
  %13 = uitofp i64 %2 to float
  %14 = uitofp i64 %1 to float
  %15 = fdiv float %13, %14
  %16 = fmul float %15, 1.000000e+02
  %17 = fcmp olt float %16, 1.000000e+00
  br i1 %17, label %18, label %19

18:                                               ; preds = %12
  tail call void (ptr, ptr, ...) @_ZN12outputStream5printEPKcz(ptr noundef nonnull align 8 dereferenceable(56) %0, ptr noundef nonnull @.str.17) #4
  br label %24

19:                                               ; preds = %12
  %20 = fcmp ogt float %16, 9.900000e+01
  br i1 %20, label %21, label %22

21:                                               ; preds = %19
  tail call void (ptr, ptr, ...) @_ZN12outputStream5printEPKcz(ptr noundef nonnull align 8 dereferenceable(56) %0, ptr noundef nonnull @.str.18) #4
  br label %24

22:                                               ; preds = %19
  %23 = fpext float %16 to double
  tail call void (ptr, ptr, ...) @_ZN12outputStream5printEPKcz(ptr noundef nonnull align 8 dereferenceable(56) %0, ptr noundef nonnull @.str.19, double noundef %23) #4
  br label %24

24:                                               ; preds = %8, %18, %22, %21, %11, %5
  ret void
}